target datalayout = "e-m:e-p270:32:32-p271:32:32-p272:64:64-i64:64-i128:128-f80:128-n8:16:32:64-S128"
target triple = "x86_64-pc-linux-gnu"

%struct._object = type { %union.anon, ptr }
%union.anon = type { i64 }
%struct._longobject = type { %struct._object, %struct._PyLongValue }
%struct._PyLongValue = type { i64, [1 x i32] }
%struct._abc_data = type { %struct._object, ptr, ptr, ptr, i64 }
%struct.anon = type { i32, i32 }
%struct.PySetObject = type { %struct._object, i64, i64, i64, ptr, i64, i64, [8 x %struct.setentry], ptr }
%struct.setentry = type { ptr, i64 }

@PyExc_TypeError = external global ptr, align 8
@_Py_TrueStruct = external global %struct._longobject, align 8

; Function Attrs: alwaysinline nounwind uwtable
define internal i32 @_Py_IsImmortal(ptr noundef %0) #4 {
  %2 = alloca ptr, align 8
  store ptr %0, ptr %2, align 8, !tbaa !4
  %3 = load ptr, ptr %2, align 8, !tbaa !4
  %4 = getelementptr inbounds nuw %struct._object, ptr %3, i32 0, i32 0
  %5 = getelementptr inbounds nuw %struct.anon, ptr %4, i32 0, i32 0
  %6 = load i32, ptr %5, align 8, !tbaa !46
  %7 = icmp slt i32 %6, 0
  %8 = zext i1 %7 to i32
  ret i32 %8
}

; Function Attrs: inlinehint nounwind uwtable
define internal i64 @PySet_GET_SIZE(ptr noundef %0) #3 {
  %2 = alloca ptr, align 8
  store ptr %0, ptr %2, align 8, !tbaa !4
  %3 = load ptr, ptr %2, align 8, !tbaa !4
  %4 = getelementptr inbounds nuw %struct.PySetObject, ptr %3, i32 0, i32 2
  %5 = load i64, ptr %4, align 8, !tbaa !65
  ret i64 %5
}

; Function Attrs: alwaysinline nounwind uwtable
define internal void @Py_DECREF(ptr noundef %0) #4 {
  %2 = alloca ptr, align 8
  store ptr %0, ptr %2, align 8, !tbaa !4
  %3 = load ptr, ptr %2, align 8, !tbaa !4
  %4 = call i32 @_Py_IsImmortal(ptr noundef %3)
  %5 = icmp ne i32 %4, 0
  br i1 %5, label %6, label %7

6:                                                ; preds = %1
  br label %16

7:                                                ; preds = %1
  %8 = load ptr, ptr %2, align 8, !tbaa !4
  %9 = getelementptr inbounds nuw %struct._object, ptr %8, i32 0, i32 0
  %10 = getelementptr inbounds nuw %struct.anon, ptr %9, i32 0, i32 0
  %11 = load i32, ptr %10, align 8, !tbaa !46
  %12 = add i32 %11, -1
  store i32 %12, ptr %10, align 8, !tbaa !46
  %13 = icmp eq i32 %12, 0
  br i1 %13, label %14, label %16

14:                                               ; preds = %7
  %15 = load ptr, ptr %2, align 8, !tbaa !4
  call void @_Py_Dealloc(ptr noundef %15)
  br label %16

16:                                               ; preds = %6, %14, %7
  ret void
}

; Function Attrs: nounwind uwtable
define internal i32 @_in_weak_set(ptr noundef %0, ptr noundef %1, ptr noundef %2) #0 {
  %4 = alloca i32, align 4
  %5 = alloca ptr, align 8
  %6 = alloca ptr, align 8
  %7 = alloca ptr, align 8
  %8 = alloca ptr, align 8
  %9 = alloca i32, align 4
  %10 = alloca ptr, align 8
  %11 = alloca i32, align 4
  store ptr %0, ptr %5, align 8, !tbaa !9
  store ptr %1, ptr %6, align 8, !tbaa !25
  store ptr %2, ptr %7, align 8, !tbaa !4
  call void @llvm.lifetime.start.p0(i64 8, ptr %8) #5
  %12 = load ptr, ptr %6, align 8, !tbaa !25
  %13 = load ptr, ptr %12, align 8, !tbaa !4
  store ptr %13, ptr %8, align 8, !tbaa !4
  %14 = load ptr, ptr %8, align 8, !tbaa !4
  %15 = icmp eq ptr %14, null
  br i1 %15, label %20, label %16

16:                                               ; preds = %3
  %17 = load ptr, ptr %8, align 8, !tbaa !4
  %18 = call i64 @PySet_GET_SIZE(ptr noundef %17)
  %19 = icmp eq i64 %18, 0
  br i1 %19, label %20, label %21

20:                                               ; preds = %16, %3
  store i32 0, ptr %4, align 4
  store i32 1, ptr %9, align 4
  br label %39

21:                                               ; preds = %16
  call void @llvm.lifetime.start.p0(i64 8, ptr %10) #5
  %22 = load ptr, ptr %7, align 8, !tbaa !4
  %23 = call ptr @PyWeakref_NewRef(ptr noundef %22, ptr noundef null)
  store ptr %23, ptr %10, align 8, !tbaa !4
  %24 = load ptr, ptr %10, align 8, !tbaa !4
  %25 = icmp eq ptr %24, null
  br i1 %25, label %26, label %32

26:                                               ; preds = %21
  %27 = load ptr, ptr @PyExc_TypeError, align 8, !tbaa !4
  %28 = call i32 @PyErr_ExceptionMatches(ptr noundef %27)
  %29 = icmp ne i32 %28, 0
  br i1 %29, label %30, label %31

30:                                               ; preds = %26
  call void @PyErr_Clear()
  store i32 0, ptr %4, align 4
  store i32 1, ptr %9, align 4
  br label %38

31:                                               ; preds = %26
  store i32 -1, ptr %4, align 4
  store i32 1, ptr %9, align 4
  br label %38

32:                                               ; preds = %21
  call void @llvm.lifetime.start.p0(i64 4, ptr %11) #5
  %33 = load ptr, ptr %8, align 8, !tbaa !4
  %34 = load ptr, ptr %10, align 8, !tbaa !4
  %35 = call i32 @PySet_Contains(ptr noundef %33, ptr noundef %34)
  store i32 %35, ptr %11, align 4, !tbaa !14
  %36 = load ptr, ptr %10, align 8, !tbaa !4
  call void @Py_DECREF(ptr noundef %36)
  %37 = load i32, ptr %11, align 4, !tbaa !14
  store i32 %37, ptr %4, align 4
  store i32 1, ptr %9, align 4
  call void @llvm.lifetime.end.p0(i64 4, ptr %11) #5
  br label %38

38:                                               ; preds = %32, %31, %30
  call void @llvm.lifetime.end.p0(i64 8, ptr %10) #5
  br label %39

39:                                               ; preds = %38, %20
  call void @llvm.lifetime.end.p0(i64 8, ptr %8) #5
  %40 = load i32, ptr %4, align 4
  ret i32 %40
}

; Function Attrs: nounwind uwtable
define internal i32 @subclasscheck_check_registry(ptr noundef %0, ptr noundef %1, ptr noundef %2) #0 {
  %4 = alloca i32, align 4
  %5 = alloca ptr, align 8
  %6 = alloca ptr, align 8
  %7 = alloca ptr, align 8
  %8 = alloca i32, align 4
  %9 = alloca i32, align 4
  %10 = alloca ptr, align 8
  %11 = alloca ptr, align 8
  %12 = alloca ptr, align 8
  %13 = alloca i64, align 8
  %14 = alloca i64, align 8
  %15 = alloca ptr, align 8
  %16 = alloca i32, align 4
  store ptr %0, ptr %5, align 8, !tbaa !9
  store ptr %1, ptr %6, align 8, !tbaa !4
  store ptr %2, ptr %7, align 8, !tbaa !25
  call void @llvm.lifetime.start.p0(i64 4, ptr %8) #5
  %17 = load ptr, ptr %5, align 8, !tbaa !9
  %18 = load ptr, ptr %5, align 8, !tbaa !9
  %19 = getelementptr inbounds nuw %struct._abc_data, ptr %18, i32 0, i32 1
  %20 = load ptr, ptr %6, align 8, !tbaa !4
  %21 = call i32 @_in_weak_set(ptr noundef %17, ptr noundef %19, ptr noundef %20)
  store i32 %21, ptr %8, align 4, !tbaa !14
  %22 = load i32, ptr %8, align 4, !tbaa !14
  %23 = icmp slt i32 %22, 0
  br i1 %23, label %24, label %26

24:                                               ; preds = %3
  %25 = load ptr, ptr %7, align 8, !tbaa !25
  store ptr null, ptr %25, align 8, !tbaa !4
  store i32 -1, ptr %4, align 4
  store i32 1, ptr %9, align 4
  br label %89

26:                                               ; preds = %3
  %27 = load i32, ptr %8, align 4, !tbaa !14
  %28 = icmp sgt i32 %27, 0
  br i1 %28, label %29, label %31

29:                                               ; preds = %26
  %30 = load ptr, ptr %7, align 8, !tbaa !25
  store ptr @_Py_TrueStruct, ptr %30, align 8, !tbaa !4
  store i32 1, ptr %4, align 4
  store i32 1, ptr %9, align 4
  br label %89

31:                                               ; preds = %26
  call void @llvm.lifetime.start.p0(i64 8, ptr %10) #5
  %32 = load ptr, ptr %5, align 8, !tbaa !9
  %33 = getelementptr inbounds nuw %struct._abc_data, ptr %32, i32 0, i32 1
  %34 = load ptr, ptr %33, align 8, !tbaa !20
  store ptr %34, ptr %10, align 8, !tbaa !4
  %35 = load ptr, ptr %10, align 8, !tbaa !4
  %36 = icmp eq ptr %35, null
  br i1 %36, label %37, label %38

37:                                               ; preds = %31
  store i32 0, ptr %4, align 4
  store i32 1, ptr %9, align 4
  br label %88

38:                                               ; preds = %31
  call void @llvm.lifetime.start.p0(i64 8, ptr %11) #5
  %39 = load ptr, ptr %10, align 8, !tbaa !4
  %40 = call ptr @PyFrozenSet_New(ptr noundef %39)
  store ptr %40, ptr %11, align 8, !tbaa !4
  %41 = load ptr, ptr %11, align 8, !tbaa !4
  %42 = icmp eq ptr %41, null
  br i1 %42, label %43, label %44

43:                                               ; preds = %38
  store i32 -1, ptr %4, align 4
  store i32 1, ptr %9, align 4
  br label %87

44:                                               ; preds = %38
  call void @llvm.lifetime.start.p0(i64 8, ptr %12) #5
  call void @llvm.lifetime.start.p0(i64 8, ptr %13) #5
  store i64 0, ptr %13, align 8, !tbaa !19
  call void @llvm.lifetime.start.p0(i64 8, ptr %14) #5
  br label %45

45:                                               ; preds = %83, %81, %44
  %46 = load ptr, ptr %11, align 8, !tbaa !4
  %47 = call i32 @_PySet_NextEntry(ptr noundef %46, ptr noundef %13, ptr noundef %12, ptr noundef %14)
  %48 = icmp ne i32 %47, 0
  br i1 %48, label %49, label %84

49:                                               ; preds = %45
  call void @llvm.lifetime.start.p0(i64 8, ptr %15) #5
  %50 = load ptr, ptr %12, align 8, !tbaa !4
  %51 = call i32 @PyWeakref_GetRef(ptr noundef %50, ptr noundef %15)
  %52 = icmp slt i32 %51, 0
  br i1 %52, label %53, label %54

53:                                               ; preds = %49
  store i32 -1, ptr %8, align 4, !tbaa !14
  store i32 3, ptr %9, align 4
  br label %81

54:                                               ; preds = %49
  %55 = load ptr, ptr %15, align 8, !tbaa !4
  %56 = icmp eq ptr %55, null
  br i1 %56, label %57, label %58

57:                                               ; preds = %54
  store i32 2, ptr %9, align 4
  br label %81, !llvm.loop !68

58:                                               ; preds = %54
  call void @llvm.lifetime.start.p0(i64 4, ptr %16) #5
  %59 = load ptr, ptr %6, align 8, !tbaa !4
  %60 = load ptr, ptr %15, align 8, !tbaa !4
  %61 = call i32 @PyObject_IsSubclass(ptr noundef %59, ptr noundef %60)
  store i32 %61, ptr %16, align 4, !tbaa !14
  %62 = load ptr, ptr %15, align 8, !tbaa !4
  call void @Py_DECREF(ptr noundef %62)
  %63 = load i32, ptr %16, align 4, !tbaa !14
  %64 = icmp slt i32 %63, 0
  br i1 %64, label %65, label %66

65:                                               ; preds = %58
  store i32 -1, ptr %8, align 4, !tbaa !14
  store i32 3, ptr %9, align 4
  br label %80

66:                                               ; preds = %58
  %67 = load i32, ptr %16, align 4, !tbaa !14
  %68 = icmp sgt i32 %67, 0
  br i1 %68, label %69, label %79

69:                                               ; preds = %66
  %70 = load ptr, ptr %5, align 8, !tbaa !9
  %71 = load ptr, ptr %5, align 8, !tbaa !9
  %72 = getelementptr inbounds nuw %struct._abc_data, ptr %71, i32 0, i32 2
  %73 = load ptr, ptr %6, align 8, !tbaa !4
  %74 = call i32 @_add_to_weak_set(ptr noundef %70, ptr noundef %72, ptr noundef %73)
  %75 = icmp slt i32 %74, 0
  br i1 %75, label %76, label %77

76:                                               ; preds = %69
  store i32 -1, ptr %8, align 4, !tbaa !14
  store i32 3, ptr %9, align 4
  br label %80

77:                                               ; preds = %69
  %78 = load ptr, ptr %7, align 8, !tbaa !25
  store ptr @_Py_TrueStruct, ptr %78, align 8, !tbaa !4
  store i32 1, ptr %8, align 4, !tbaa !14
  store i32 3, ptr %9, align 4
  br label %80

79:                                               ; preds = %66
  store i32 0, ptr %9, align 4
  br label %80

80:                                               ; preds = %79, %77, %76, %65
  call void @llvm.lifetime.end.p0(i64 4, ptr %16) #5
  br label %81

81:                                               ; preds = %80, %57, %53
  call void @llvm.lifetime.end.p0(i64 8, ptr %15) #5
  %82 = load i32, ptr %9, align 4
  switch i32 %82, label %91 [
    i32 0, label %83
    i32 3, label %84
    i32 2, label %45
  ]

83:                                               ; preds = %81
  br label %45, !llvm.loop !68

84:                                               ; preds = %81, %45
  %85 = load ptr, ptr %11, align 8, !tbaa !4
  call void @Py_DECREF(ptr noundef %85)
  %86 = load i32, ptr %8, align 4, !tbaa !14
  store i32 %86, ptr %4, align 4
  store i32 1, ptr %9, align 4
  call void @llvm.lifetime.end.p0(i64 8, ptr %14) #5
  call void @llvm.lifetime.end.p0(i64 8, ptr %13) #5
  call void @llvm.lifetime.end.p0(i64 8, ptr %12) #5
  br label %87

87:                                               ; preds = %84, %43
  call void @llvm.lifetime.end.p0(i64 8, ptr %11) #5
  br label %88

88:                                               ; preds = %87, %37
  call void @llvm.lifetime.end.p0(i64 8, ptr %10) #5
  br label %89

89:                                               ; preds = %88, %29, %24
  call void @llvm.lifetime.end.p0(i64 4, ptr %8) #5
  %90 = load i32, ptr %4, align 4
  ret i32 %90

91:                                               ; preds = %81
  unreachable
}