; Function Attrs: nounwind uwtable
define internal fastcc range(i32 -1, 2) i32 @subclasscheck_check_registry(ptr noundef nonnull captures(none) %0, ptr noundef %1, ptr noundef nonnull writeonly captures(none) %2) unnamed_addr #0 {
  %4 = alloca ptr, align 8
  %5 = alloca i64, align 8
  %6 = alloca i64, align 8
  %7 = alloca ptr, align 8
  %8 = getelementptr inbounds nuw i8, ptr %0, i64 16
  %.val = load ptr, ptr %8, align 8, !tbaa !24
  %9 = icmp eq ptr %.val, null
  br i1 %9, label %.thread.thread, label %10

10:                                               ; preds = %3
  %11 = getelementptr i8, ptr %.val, i64 24
  %.val.i = load i64, ptr %11, align 8, !tbaa !53
  %12 = icmp eq i64 %.val.i, 0
  br i1 %12, label %.thread, label %13

13:                                               ; preds = %10
  %14 = tail call ptr @PyWeakref_NewRef(ptr noundef %1, ptr noundef null) #4
  %15 = icmp eq ptr %14, null
  br i1 %15, label %16, label %20

16:                                               ; preds = %13
  %17 = load ptr, ptr @PyExc_TypeError, align 8, !tbaa !24
  %18 = tail call i32 @PyErr_ExceptionMatches(ptr noundef %17) #4
  %.not.i37 = icmp eq i32 %18, 0
  br i1 %.not.i37, label %_in_weak_set.exit.thread40, label %19

19:                                               ; preds = %16
  tail call void @PyErr_Clear() #4
  br label %.thread

20:                                               ; preds = %13
  %21 = tail call i32 @PySet_Contains(ptr noundef nonnull %.val, ptr noundef nonnull %14) #4
  %22 = load i32, ptr %14, align 8, !tbaa !17
  %.not.i.i = icmp sgt i32 %22, -1
  br i1 %.not.i.i, label %23, label %_in_weak_set.exit

23:                                               ; preds = %20
  %24 = add nsw i32 %22, -1
  store i32 %24, ptr %14, align 8, !tbaa !17
  %25 = icmp eq i32 %24, 0
  br i1 %25, label %26, label %_in_weak_set.exit

26:                                               ; preds = %23
  tail call void @_Py_Dealloc(ptr noundef nonnull %14) #4
  br label %_in_weak_set.exit

_in_weak_set.exit:                                ; preds = %20, %23, %26
  %27 = icmp slt i32 %21, 0
  br i1 %27, label %_in_weak_set.exit.thread40, label %28

_in_weak_set.exit.thread40:                       ; preds = %16, %_in_weak_set.exit
  store ptr null, ptr %2, align 8, !tbaa !24
  br label %.thread.thread

28:                                               ; preds = %_in_weak_set.exit
  %.not = icmp eq i32 %21, 0
  br i1 %.not, label %.thread, label %29

29:                                               ; preds = %28
  store ptr @_Py_TrueStruct, ptr %2, align 8, !tbaa !24
  br label %.thread.thread

.thread:                                          ; preds = %10, %19, %28
  %.pr = load ptr, ptr %8, align 8, !tbaa !50
  %30 = icmp eq ptr %.pr, null
  br i1 %30, label %.thread.thread, label %31

31:                                               ; preds = %.thread
  %32 = tail call ptr @PyFrozenSet_New(ptr noundef nonnull %.pr) #4
  %33 = icmp eq ptr %32, null
  br i1 %33, label %.thread.thread, label %34

34:                                               ; preds = %31
  call void @llvm.lifetime.start.p0(i64 8, ptr nonnull %4) #4
  call void @llvm.lifetime.start.p0(i64 8, ptr nonnull %5) #4
  store i64 0, ptr %5, align 8, !tbaa !59
  call void @llvm.lifetime.start.p0(i64 8, ptr nonnull %6) #4
  %35 = call i32 @_PySet_NextEntry(ptr noundef nonnull %32, ptr noundef nonnull %5, ptr noundef nonnull %4, ptr noundef nonnull %6) #4
  %.not3249 = icmp eq i32 %35, 0
  br i1 %.not3249, label %.loopexit, label %.lr.ph

.lr.ph:                                           ; preds = %34, %57
  call void @llvm.lifetime.start.p0(i64 8, ptr nonnull %7) #4
  %36 = load ptr, ptr %4, align 8, !tbaa !24
  %37 = call i32 @PyWeakref_GetRef(ptr noundef %36, ptr noundef nonnull %7) #4
  %38 = icmp slt i32 %37, 0
  br i1 %38, label %.thread44, label %39

39:                                               ; preds = %.lr.ph
  %40 = load ptr, ptr %7, align 8, !tbaa !24
  %41 = icmp eq ptr %40, null
  br i1 %41, label %57, label %42, !llvm.loop !60

42:                                               ; preds = %39
  %43 = call i32 @PyObject_IsSubclass(ptr noundef %1, ptr noundef nonnull %40) #4
  %44 = load ptr, ptr %7, align 8, !tbaa !24
  %45 = load i32, ptr %44, align 8, !tbaa !17
  %.not.i34 = icmp sgt i32 %45, -1
  br i1 %.not.i34, label %46, label %Py_DECREF.exit35

46:                                               ; preds = %42
  %47 = add nsw i32 %45, -1
  store i32 %47, ptr %44, align 8, !tbaa !17
  %48 = icmp eq i32 %47, 0
  br i1 %48, label %49, label %Py_DECREF.exit35

49:                                               ; preds = %46
  call void @_Py_Dealloc(ptr noundef nonnull %44) #4
  br label %Py_DECREF.exit35

Py_DECREF.exit35:                                 ; preds = %42, %46, %49
  %50 = icmp slt i32 %43, 0
  br i1 %50, label %.thread44, label %51

51:                                               ; preds = %Py_DECREF.exit35
  %.not33 = icmp eq i32 %43, 0
  br i1 %.not33, label %57, label %52

52:                                               ; preds = %51
  %53 = getelementptr inbounds nuw i8, ptr %0, i64 24
  %54 = call fastcc i32 @_add_to_weak_set(ptr noundef %53, ptr noundef %1)
  %55 = icmp slt i32 %54, 0
  br i1 %55, label %.thread44, label %56

56:                                               ; preds = %52
  store ptr @_Py_TrueStruct, ptr %2, align 8, !tbaa !24
  br label %.thread44

.thread44:                                        ; preds = %.lr.ph, %Py_DECREF.exit35, %56, %52
  %.224.ph = phi i32 [ -1, %52 ], [ 1, %56 ], [ -1, %Py_DECREF.exit35 ], [ -1, %.lr.ph ]
  call void @llvm.lifetime.end.p0(i64 8, ptr nonnull %7) #4
  br label %.loopexit

57:                                               ; preds = %51, %39
  call void @llvm.lifetime.end.p0(i64 8, ptr nonnull %7) #4
  %58 = call i32 @_PySet_NextEntry(ptr noundef nonnull %32, ptr noundef nonnull %5, ptr noundef nonnull %4, ptr noundef nonnull %6) #4
  %.not32 = icmp eq i32 %58, 0
  br i1 %.not32, label %.loopexit, label %.lr.ph

.loopexit:                                        ; preds = %57, %34, %.thread44
  %.123 = phi i32 [ %.224.ph, %.thread44 ], [ 0, %34 ], [ 0, %57 ]
  %59 = load i32, ptr %32, align 8, !tbaa !17
  %.not.i = icmp sgt i32 %59, -1
  br i1 %.not.i, label %60, label %Py_DECREF.exit

60:                                               ; preds = %.loopexit
  %61 = add nsw i32 %59, -1
  store i32 %61, ptr %32, align 8, !tbaa !17
  %62 = icmp eq i32 %61, 0
  br i1 %62, label %63, label %Py_DECREF.exit

63:                                               ; preds = %60
  call void @_Py_Dealloc(ptr noundef nonnull %32) #4
  br label %Py_DECREF.exit

Py_DECREF.exit:                                   ; preds = %.loopexit, %60, %63
  call void @llvm.lifetime.end.p0(i64 8, ptr nonnull %6) #4
  call void @llvm.lifetime.end.p0(i64 8, ptr nonnull %5) #4
  call void @llvm.lifetime.end.p0(i64 8, ptr nonnull %4) #4
  br label %.thread.thread

.thread.thread:                                   ; preds = %3, %.thread, %31, %Py_DECREF.exit, %29, %_in_weak_set.exit.thread40
  %.0 = phi i32 [ -1, %_in_weak_set.exit.thread40 ], [ 1, %29 ], [ 0, %.thread ], [ %.123, %Py_DECREF.exit ], [ -1, %31 ], [ 0, %3 ]
  ret i32 %.0
}